; Function Attrs: mustprogress uwtable
define noundef nonnull align 8 dereferenceable(80) ptr @_ZN4LIEF5MachO16SegmentSplitInfoaSERKS1_(ptr noundef nonnull returned align 8 dereferenceable(80) %0, ptr noundef nonnull align 8 dereferenceable(80) %1) local_unnamed_addr #0 align 2 personality ptr @__gxx_personality_v0 {
  %3 = alloca %"class.LIEF::MachO::LoadCommand", align 8
  call void @_ZN4LIEF5MachO11LoadCommandC1ERKS1_(ptr noundef nonnull align 8 dereferenceable(56) %3, ptr noundef nonnull align 8 dereferenceable(56) %1)
  %4 = invoke noundef nonnull align 8 dereferenceable(56) ptr @_ZN4LIEF5MachO11LoadCommandaSES1_(ptr noundef nonnull align 8 dereferenceable(56) %0, ptr noundef nonnull %3)
          to label %5 unwind label %8

5:                                                ; preds = %2
  call void @_ZN4LIEF5MachO11LoadCommandD1Ev(ptr noundef nonnull align 8 dereferenceable(56) %3) #10
  %6 = getelementptr inbounds i8, ptr %0, i64 56
  %7 = getelementptr inbounds i8, ptr %1, i64 56
  call void @llvm.memcpy.p0.p0.i64(ptr noundef nonnull align 8 dereferenceable(24) %6, ptr noundef nonnull align 8 dereferenceable(24) %7, i64 24, i1 false)
  ret ptr %0

8:                                                ; preds = %2
  %9 = landingpad { ptr, i32 }
          cleanup
  call void @_ZN4LIEF5MachO11LoadCommandD1Ev(ptr noundef nonnull align 8 dereferenceable(56) %3) #10
  resume { ptr, i32 } %9
}